target datalayout = "e-m:e-p270:32:32-p271:32:32-p272:64:64-i64:64-i128:128-f80:128-n8:16:32:64-S128"
target triple = "x86_64-pc-linux-gnu"

%struct.CRYPTO_REF_COUNT = type { i32 }
%struct.ssl_token_store_st = type { ptr, %struct.CRYPTO_REF_COUNT, ptr }

@.str = private unnamed_addr constant [32 x i8] c"../openssl/ssl/quic/quic_impl.c\00", align 1

; Function Attrs: inlinehint nounwind uwtable
define internal void @lh_QUIC_TOKEN_free(ptr noundef %0) #3 {
  %2 = alloca ptr, align 8
  store ptr %0, ptr %2, align 8, !tbaa !284
  %3 = load ptr, ptr %2, align 8, !tbaa !284
  call void @OPENSSL_LH_free(ptr noundef %3)
  ret void
}

; Function Attrs: inlinehint nounwind uwtable
define internal void @lh_QUIC_TOKEN_doall(ptr noundef %0, ptr noundef %1) #3 {
  %3 = alloca ptr, align 8
  %4 = alloca ptr, align 8
  store ptr %0, ptr %3, align 8, !tbaa !284
  store ptr %1, ptr %4, align 8, !tbaa !167
  %5 = load ptr, ptr %3, align 8, !tbaa !284
  %6 = load ptr, ptr %4, align 8, !tbaa !167
  call void @OPENSSL_LH_doall(ptr noundef %5, ptr noundef %6)
  ret void
}

; Function Attrs: inlinehint nounwind uwtable
define internal i32 @CRYPTO_DOWN_REF(ptr noundef %0, ptr noundef %1) #3 {
  %3 = alloca ptr, align 8
  %4 = alloca ptr, align 8
  %5 = alloca i32, align 4
  %6 = alloca i32, align 4
  store ptr %0, ptr %3, align 8, !tbaa !167
  store ptr %1, ptr %4, align 8, !tbaa !180
  %7 = load ptr, ptr %3, align 8, !tbaa !167
  %8 = getelementptr inbounds nuw %struct.CRYPTO_REF_COUNT, ptr %7, i32 0, i32 0
  store i32 1, ptr %5, align 4, !tbaa !122
  %9 = load i32, ptr %5, align 4
  %10 = atomicrmw sub ptr %8, i32 %9 release, align 4
  store i32 %10, ptr %6, align 4
  %11 = load i32, ptr %6, align 4, !tbaa !122
  %12 = sub nsw i32 %11, 1
  %13 = load ptr, ptr %4, align 8, !tbaa !180
  store i32 %12, ptr %13, align 4, !tbaa !122
  %14 = load ptr, ptr %4, align 8, !tbaa !180
  %15 = load i32, ptr %14, align 4, !tbaa !122
  %16 = icmp eq i32 %15, 0
  br i1 %16, label %17, label %18

17:                                               ; preds = %2
  fence acquire
  br label %18

18:                                               ; preds = %17, %2
  ret i32 1
}

; Function Attrs: nounwind uwtable
define void @ossl_quic_free_token_store(ptr noundef %0) #0 {
  %2 = alloca ptr, align 8
  %3 = alloca i32, align 4
  %4 = alloca i32, align 4
  store ptr %0, ptr %2, align 8, !tbaa !272
  call void @llvm.lifetime.start.p0(i64 4, ptr %3) #10
  %5 = load ptr, ptr %2, align 8, !tbaa !272
  %6 = icmp eq ptr %5, null
  br i1 %6, label %7, label %8

7:                                                ; preds = %1
  store i32 1, ptr %4, align 4
  br label %28

8:                                                ; preds = %1
  %9 = load ptr, ptr %2, align 8, !tbaa !272
  %10 = getelementptr inbounds nuw %struct.ssl_token_store_st, ptr %9, i32 0, i32 1
  %11 = call i32 @CRYPTO_DOWN_REF(ptr noundef %10, ptr noundef %3)
  %12 = icmp ne i32 %11, 0
  br i1 %12, label %14, label %13

13:                                               ; preds = %8
  store i32 1, ptr %4, align 4
  br label %28

14:                                               ; preds = %8
  %15 = load i32, ptr %3, align 4, !tbaa !122
  %16 = icmp sgt i32 %15, 0
  br i1 %16, label %17, label %18

17:                                               ; preds = %14
  store i32 1, ptr %4, align 4
  br label %28

18:                                               ; preds = %14
  %19 = load ptr, ptr %2, align 8, !tbaa !272
  %20 = getelementptr inbounds nuw %struct.ssl_token_store_st, ptr %19, i32 0, i32 2
  call void @ossl_crypto_mutex_free(ptr noundef %20)
  %21 = load ptr, ptr %2, align 8, !tbaa !272
  %22 = getelementptr inbounds nuw %struct.ssl_token_store_st, ptr %21, i32 0, i32 0
  %23 = load ptr, ptr %22, align 8, !tbaa !273
  call void @lh_QUIC_TOKEN_doall(ptr noundef %23, ptr noundef @free_this_token)
  %24 = load ptr, ptr %2, align 8, !tbaa !272
  %25 = getelementptr inbounds nuw %struct.ssl_token_store_st, ptr %24, i32 0, i32 0
  %26 = load ptr, ptr %25, align 8, !tbaa !273
  call void @lh_QUIC_TOKEN_free(ptr noundef %26)
  %27 = load ptr, ptr %2, align 8, !tbaa !272
  call void @CRYPTO_free(ptr noundef %27, ptr noundef @.str, i32 noundef 4715)
  store i32 1, ptr %4, align 4
  br label %28

28:                                               ; preds = %18, %17, %13, %7
  call void @llvm.lifetime.end.p0(i64 4, ptr %3) #10
  ret void
}

; Function Attrs: inlinehint nounwind uwtable
define internal i32 @CRYPTO_NEW_REF(ptr noundef %0, i32 noundef %1) #3 {
  %3 = alloca ptr, align 8
  %4 = alloca i32, align 4
  store ptr %0, ptr %3, align 8, !tbaa !167
  store i32 %1, ptr %4, align 4, !tbaa !122
  %5 = load i32, ptr %4, align 4, !tbaa !122
  %6 = load ptr, ptr %3, align 8, !tbaa !167
  %7 = getelementptr inbounds nuw %struct.CRYPTO_REF_COUNT, ptr %6, i32 0, i32 0
  store atomic i32 %5, ptr %7 seq_cst, align 4, !tbaa !283
  ret i32 1
}

; Function Attrs: inlinehint nounwind uwtable
define internal ptr @lh_QUIC_TOKEN_new(ptr noundef %0, ptr noundef %1) #3 {
  %3 = alloca ptr, align 8
  %4 = alloca ptr, align 8
  store ptr %0, ptr %3, align 8, !tbaa !167
  store ptr %1, ptr %4, align 8, !tbaa !167
  %5 = load ptr, ptr %3, align 8, !tbaa !167
  %6 = load ptr, ptr %4, align 8, !tbaa !167
  %7 = call ptr @OPENSSL_LH_new(ptr noundef %5, ptr noundef %6)
  %8 = call ptr @OPENSSL_LH_set_thunks(ptr noundef %7, ptr noundef @lh_QUIC_TOKEN_hfn_thunk, ptr noundef @lh_QUIC_TOKEN_cfn_thunk, ptr noundef @lh_QUIC_TOKEN_doall_thunk, ptr noundef @lh_QUIC_TOKEN_doall_arg_thunk)
  ret ptr %8
}

; Function Attrs: nounwind uwtable
define ptr @ossl_quic_new_token_store() #0 {
  %1 = alloca i32, align 4
  %2 = alloca ptr, align 8
  call void @llvm.lifetime.start.p0(i64 4, ptr %1) #10
  store i32 0, ptr %1, align 4, !tbaa !122
  call void @llvm.lifetime.start.p0(i64 8, ptr %2) #10
  %3 = call noalias ptr @CRYPTO_zalloc(i64 noundef 24, ptr noundef @.str, i32 noundef 4667)
  store ptr %3, ptr %2, align 8, !tbaa !272
  %4 = load ptr, ptr %2, align 8, !tbaa !272
  %5 = icmp eq ptr %4, null
  br i1 %5, label %6, label %7

6:                                                ; preds = %0
  br label %29

7:                                                ; preds = %0
  %8 = call ptr @lh_QUIC_TOKEN_new(ptr noundef @quic_token_hash, ptr noundef @quic_token_cmp)
  %9 = load ptr, ptr %2, align 8, !tbaa !272
  %10 = getelementptr inbounds nuw %struct.ssl_token_store_st, ptr %9, i32 0, i32 0
  store ptr %8, ptr %10, align 8, !tbaa !273
  %11 = load ptr, ptr %2, align 8, !tbaa !272
  %12 = getelementptr inbounds nuw %struct.ssl_token_store_st, ptr %11, i32 0, i32 0
  %13 = load ptr, ptr %12, align 8, !tbaa !273
  %14 = icmp eq ptr %13, null
  br i1 %14, label %15, label %16

15:                                               ; preds = %7
  br label %29

16:                                               ; preds = %7
  %17 = call ptr @ossl_crypto_mutex_new()
  %18 = load ptr, ptr %2, align 8, !tbaa !272
  %19 = getelementptr inbounds nuw %struct.ssl_token_store_st, ptr %18, i32 0, i32 2
  store ptr %17, ptr %19, align 8, !tbaa !276
  %20 = icmp eq ptr %17, null
  br i1 %20, label %21, label %22

21:                                               ; preds = %16
  br label %29

22:                                               ; preds = %16
  %23 = load ptr, ptr %2, align 8, !tbaa !272
  %24 = getelementptr inbounds nuw %struct.ssl_token_store_st, ptr %23, i32 0, i32 1
  %25 = call i32 @CRYPTO_NEW_REF(ptr noundef %24, i32 noundef 1)
  %26 = icmp ne i32 %25, 0
  br i1 %26, label %28, label %27

27:                                               ; preds = %22
  br label %29

28:                                               ; preds = %22
  store i32 1, ptr %1, align 4, !tbaa !122
  br label %29

29:                                               ; preds = %28, %27, %21, %15, %6
  %30 = load i32, ptr %1, align 4, !tbaa !122
  %31 = icmp ne i32 %30, 0
  br i1 %31, label %34, label %32

32:                                               ; preds = %29
  %33 = load ptr, ptr %2, align 8, !tbaa !272
  call void @ossl_quic_free_token_store(ptr noundef %33)
  store ptr null, ptr %2, align 8, !tbaa !272
  br label %34

34:                                               ; preds = %32, %29
  %35 = load ptr, ptr %2, align 8, !tbaa !272
  call void @llvm.lifetime.end.p0(i64 8, ptr %2) #10
  call void @llvm.lifetime.end.p0(i64 4, ptr %1) #10
  ret ptr %35
}