; Function Attrs: nounwind uwtable
define ptr @ossl_quic_new_token_store() local_unnamed_addr #0 {
  %1 = tail call noalias ptr @CRYPTO_zalloc(i64 noundef 24, ptr noundef nonnull @.str, i32 noundef 4667) #12
  %2 = icmp eq ptr %1, null
  br i1 %2, label %ossl_quic_free_token_store.exit, label %3

3:                                                ; preds = %0
  %4 = tail call ptr @OPENSSL_LH_new(ptr noundef nonnull @quic_token_hash, ptr noundef nonnull @quic_token_cmp) #12
  %5 = tail call ptr @OPENSSL_LH_set_thunks(ptr noundef %4, ptr noundef nonnull @lh_QUIC_TOKEN_hfn_thunk, ptr noundef nonnull @lh_QUIC_TOKEN_cfn_thunk, ptr noundef nonnull @lh_QUIC_TOKEN_doall_thunk, ptr noundef nonnull @lh_QUIC_TOKEN_doall_arg_thunk) #12
  store ptr %5, ptr %1, align 8, !tbaa !230
  %6 = icmp eq ptr %5, null
  br i1 %6, label %13, label %7

7:                                                ; preds = %3
  %8 = tail call ptr @ossl_crypto_mutex_new() #12
  %9 = getelementptr inbounds nuw i8, ptr %1, i64 16
  store ptr %8, ptr %9, align 8, !tbaa !233
  %10 = icmp eq ptr %8, null
  br i1 %10, label %13, label %11

11:                                               ; preds = %7
  %12 = getelementptr inbounds nuw i8, ptr %1, i64 8
  store atomic i32 1, ptr %12 seq_cst, align 4, !tbaa !234
  br label %ossl_quic_free_token_store.exit

13:                                               ; preds = %7, %3
  %14 = getelementptr inbounds nuw i8, ptr %1, i64 8
  %15 = atomicrmw sub ptr %14, i32 1 release, align 4
  %16 = icmp eq i32 %15, 1
  br i1 %16, label %CRYPTO_DOWN_REF.exit.thread.i, label %CRYPTO_DOWN_REF.exit.i

CRYPTO_DOWN_REF.exit.thread.i:                    ; preds = %13
  fence acquire
  br label %18

CRYPTO_DOWN_REF.exit.i:                           ; preds = %13
  %17 = icmp sgt i32 %15, 1
  br i1 %17, label %ossl_quic_free_token_store.exit, label %18

18:                                               ; preds = %CRYPTO_DOWN_REF.exit.i, %CRYPTO_DOWN_REF.exit.thread.i
  %19 = getelementptr inbounds nuw i8, ptr %1, i64 16
  tail call void @ossl_crypto_mutex_free(ptr noundef nonnull %19) #12
  %20 = load ptr, ptr %1, align 8, !tbaa !230
  tail call void @OPENSSL_LH_doall(ptr noundef %20, ptr noundef nonnull @free_this_token) #12
  %21 = load ptr, ptr %1, align 8, !tbaa !230
  tail call void @OPENSSL_LH_free(ptr noundef %21) #12
  tail call void @CRYPTO_free(ptr noundef nonnull %1, ptr noundef nonnull @.str, i32 noundef 4715) #12
  br label %ossl_quic_free_token_store.exit

ossl_quic_free_token_store.exit:                  ; preds = %18, %CRYPTO_DOWN_REF.exit.i, %0, %11
  %.0 = phi ptr [ %1, %11 ], [ null, %0 ], [ null, %CRYPTO_DOWN_REF.exit.i ], [ null, %18 ]
  ret ptr %.0
}